target datalayout = "e-m:e-p270:32:32-p271:32:32-p272:64:64-i64:64-i128:128-f80:128-n8:16:32:64-S128"
target triple = "x86_64-pc-linux-gnu"

%struct.qdldl = type { i32, ptr, ptr, ptr, ptr, ptr, ptr, ptr, ptr, i64, ptr, ptr, ptr, ptr, ptr, ptr, double, double, i64, i64, i64, ptr, ptr, ptr, ptr, ptr, ptr, ptr, ptr, ptr, ptr, ptr }
%struct.OSQPCscMatrix = type { i64, i64, ptr, ptr, ptr, i64, i64 }
%struct.OSQPMatrix_ = type { ptr, i32 }

; Function Attrs: nounwind uwtable
define i64 @update_linsys_solver_matrices_qdldl(ptr noundef %0, ptr noundef %1, ptr noundef %2, i64 noundef %3, ptr noundef %4, ptr noundef %5, i64 noundef %6) #0 {
  %8 = alloca ptr, align 8
  %9 = alloca ptr, align 8
  %10 = alloca ptr, align 8
  %11 = alloca i64, align 8
  %12 = alloca ptr, align 8
  %13 = alloca ptr, align 8
  %14 = alloca i64, align 8
  %15 = alloca i64, align 8
  store ptr %0, ptr %8, align 8, !tbaa !3
  store ptr %1, ptr %9, align 8, !tbaa !41
  store ptr %2, ptr %10, align 8, !tbaa !76
  store i64 %3, ptr %11, align 8, !tbaa !43
  store ptr %4, ptr %12, align 8, !tbaa !41
  store ptr %5, ptr %13, align 8, !tbaa !76
  store i64 %6, ptr %14, align 8, !tbaa !43
  call void @llvm.lifetime.start.p0(i64 8, ptr %15) #7
  %16 = load ptr, ptr %8, align 8, !tbaa !3
  %17 = getelementptr inbounds nuw %struct.qdldl, ptr %16, i32 0, i32 21
  %18 = load ptr, ptr %17, align 8, !tbaa !28
  %19 = load ptr, ptr %9, align 8, !tbaa !41
  %20 = getelementptr inbounds nuw %struct.OSQPMatrix_, ptr %19, i32 0, i32 0
  %21 = load ptr, ptr %20, align 8, !tbaa !47
  %22 = load ptr, ptr %10, align 8, !tbaa !76
  %23 = load i64, ptr %11, align 8, !tbaa !43
  %24 = load ptr, ptr %8, align 8, !tbaa !3
  %25 = getelementptr inbounds nuw %struct.qdldl, ptr %24, i32 0, i32 22
  %26 = load ptr, ptr %25, align 8, !tbaa !29
  %27 = load ptr, ptr %8, align 8, !tbaa !3
  %28 = getelementptr inbounds nuw %struct.qdldl, ptr %27, i32 0, i32 16
  %29 = load double, ptr %28, align 8, !tbaa !53
  call void @update_KKT_P(ptr noundef %18, ptr noundef %21, ptr noundef %22, i64 noundef %23, ptr noundef %26, double noundef %29, i64 noundef 0)
  %30 = load ptr, ptr %8, align 8, !tbaa !3
  %31 = getelementptr inbounds nuw %struct.qdldl, ptr %30, i32 0, i32 21
  %32 = load ptr, ptr %31, align 8, !tbaa !28
  %33 = load ptr, ptr %12, align 8, !tbaa !41
  %34 = getelementptr inbounds nuw %struct.OSQPMatrix_, ptr %33, i32 0, i32 0
  %35 = load ptr, ptr %34, align 8, !tbaa !47
  %36 = load ptr, ptr %13, align 8, !tbaa !76
  %37 = load i64, ptr %14, align 8, !tbaa !43
  %38 = load ptr, ptr %8, align 8, !tbaa !3
  %39 = getelementptr inbounds nuw %struct.qdldl, ptr %38, i32 0, i32 23
  %40 = load ptr, ptr %39, align 8, !tbaa !30
  call void @update_KKT_A(ptr noundef %32, ptr noundef %35, ptr noundef %36, i64 noundef %37, ptr noundef %40)
  %41 = load ptr, ptr %8, align 8, !tbaa !3
  %42 = getelementptr inbounds nuw %struct.qdldl, ptr %41, i32 0, i32 21
  %43 = load ptr, ptr %42, align 8, !tbaa !28
  %44 = getelementptr inbounds nuw %struct.OSQPCscMatrix, ptr %43, i32 0, i32 1
  %45 = load i64, ptr %44, align 8, !tbaa !49
  %46 = load ptr, ptr %8, align 8, !tbaa !3
  %47 = getelementptr inbounds nuw %struct.qdldl, ptr %46, i32 0, i32 21
  %48 = load ptr, ptr %47, align 8, !tbaa !28
  %49 = getelementptr inbounds nuw %struct.OSQPCscMatrix, ptr %48, i32 0, i32 2
  %50 = load ptr, ptr %49, align 8, !tbaa !19
  %51 = load ptr, ptr %8, align 8, !tbaa !3
  %52 = getelementptr inbounds nuw %struct.qdldl, ptr %51, i32 0, i32 21
  %53 = load ptr, ptr %52, align 8, !tbaa !28
  %54 = getelementptr inbounds nuw %struct.OSQPCscMatrix, ptr %53, i32 0, i32 3
  %55 = load ptr, ptr %54, align 8, !tbaa !21
  %56 = load ptr, ptr %8, align 8, !tbaa !3
  %57 = getelementptr inbounds nuw %struct.qdldl, ptr %56, i32 0, i32 21
  %58 = load ptr, ptr %57, align 8, !tbaa !28
  %59 = getelementptr inbounds nuw %struct.OSQPCscMatrix, ptr %58, i32 0, i32 4
  %60 = load ptr, ptr %59, align 8, !tbaa !22
  %61 = load ptr, ptr %8, align 8, !tbaa !3
  %62 = getelementptr inbounds nuw %struct.qdldl, ptr %61, i32 0, i32 10
  %63 = load ptr, ptr %62, align 8, !tbaa !11
  %64 = getelementptr inbounds nuw %struct.OSQPCscMatrix, ptr %63, i32 0, i32 2
  %65 = load ptr, ptr %64, align 8, !tbaa !19
  %66 = load ptr, ptr %8, align 8, !tbaa !3
  %67 = getelementptr inbounds nuw %struct.qdldl, ptr %66, i32 0, i32 10
  %68 = load ptr, ptr %67, align 8, !tbaa !11
  %69 = getelementptr inbounds nuw %struct.OSQPCscMatrix, ptr %68, i32 0, i32 3
  %70 = load ptr, ptr %69, align 8, !tbaa !21
  %71 = load ptr, ptr %8, align 8, !tbaa !3
  %72 = getelementptr inbounds nuw %struct.qdldl, ptr %71, i32 0, i32 10
  %73 = load ptr, ptr %72, align 8, !tbaa !11
  %74 = getelementptr inbounds nuw %struct.OSQPCscMatrix, ptr %73, i32 0, i32 4
  %75 = load ptr, ptr %74, align 8, !tbaa !22
  %76 = load ptr, ptr %8, align 8, !tbaa !3
  %77 = getelementptr inbounds nuw %struct.qdldl, ptr %76, i32 0, i32 25
  %78 = load ptr, ptr %77, align 8, !tbaa !33
  %79 = load ptr, ptr %8, align 8, !tbaa !3
  %80 = getelementptr inbounds nuw %struct.qdldl, ptr %79, i32 0, i32 11
  %81 = load ptr, ptr %80, align 8, !tbaa !24
  %82 = load ptr, ptr %8, align 8, !tbaa !3
  %83 = getelementptr inbounds nuw %struct.qdldl, ptr %82, i32 0, i32 27
  %84 = load ptr, ptr %83, align 8, !tbaa !35
  %85 = load ptr, ptr %8, align 8, !tbaa !3
  %86 = getelementptr inbounds nuw %struct.qdldl, ptr %85, i32 0, i32 26
  %87 = load ptr, ptr %86, align 8, !tbaa !34
  %88 = load ptr, ptr %8, align 8, !tbaa !3
  %89 = getelementptr inbounds nuw %struct.qdldl, ptr %88, i32 0, i32 29
  %90 = load ptr, ptr %89, align 8, !tbaa !37
  %91 = load ptr, ptr %8, align 8, !tbaa !3
  %92 = getelementptr inbounds nuw %struct.qdldl, ptr %91, i32 0, i32 28
  %93 = load ptr, ptr %92, align 8, !tbaa !36
  %94 = load ptr, ptr %8, align 8, !tbaa !3
  %95 = getelementptr inbounds nuw %struct.qdldl, ptr %94, i32 0, i32 30
  %96 = load ptr, ptr %95, align 8, !tbaa !38
  %97 = call i64 @QDLDL_factor(i64 noundef %45, ptr noundef %50, ptr noundef %55, ptr noundef %60, ptr noundef %65, ptr noundef %70, ptr noundef %75, ptr noundef %78, ptr noundef %81, ptr noundef %84, ptr noundef %87, ptr noundef %90, ptr noundef %93, ptr noundef %96)
  store i64 %97, ptr %15, align 8, !tbaa !43
  %98 = load i64, ptr %15, align 8, !tbaa !43
  %99 = load ptr, ptr %9, align 8, !tbaa !41
  %100 = getelementptr inbounds nuw %struct.OSQPMatrix_, ptr %99, i32 0, i32 0
  %101 = load ptr, ptr %100, align 8, !tbaa !47
  %102 = getelementptr inbounds nuw %struct.OSQPCscMatrix, ptr %101, i32 0, i32 1
  %103 = load i64, ptr %102, align 8, !tbaa !49
  %104 = icmp eq i64 %98, %103
  %105 = select i1 %104, i32 0, i32 1
  %106 = sext i32 %105 to i64
  call void @llvm.lifetime.end.p0(i64 8, ptr %15) #7
  ret i64 %106
}