; Function Attrs: nounwind uwtable
define range(i64 0, 2) i64 @update_linsys_solver_matrices_qdldl(ptr noundef readonly captures(none) %0, ptr noundef readonly captures(none) %1, ptr noundef %2, i64 noundef %3, ptr noundef readonly captures(none) %4, ptr noundef %5, i64 noundef %6) #1 {
  %8 = getelementptr inbounds nuw i8, ptr %0, i64 168
  %9 = load ptr, ptr %8, align 8, !tbaa !23
  %10 = load ptr, ptr %1, align 8, !tbaa !38
  %11 = getelementptr inbounds nuw i8, ptr %0, i64 176
  %12 = load ptr, ptr %11, align 8, !tbaa !24
  %13 = getelementptr inbounds nuw i8, ptr %0, i64 128
  %14 = load double, ptr %13, align 8, !tbaa !44
  tail call void @update_KKT_P(ptr noundef %9, ptr noundef %10, ptr noundef %2, i64 noundef %3, ptr noundef %12, double noundef %14, i64 noundef 0) #12
  %15 = load ptr, ptr %8, align 8, !tbaa !23
  %16 = load ptr, ptr %4, align 8, !tbaa !38
  %17 = getelementptr inbounds nuw i8, ptr %0, i64 184
  %18 = load ptr, ptr %17, align 8, !tbaa !25
  tail call void @update_KKT_A(ptr noundef %15, ptr noundef %16, ptr noundef %5, i64 noundef %6, ptr noundef %18) #12
  %19 = load ptr, ptr %8, align 8, !tbaa !23
  %20 = getelementptr inbounds nuw i8, ptr %19, i64 8
  %21 = load i64, ptr %20, align 8, !tbaa !40
  %22 = getelementptr inbounds nuw i8, ptr %19, i64 16
  %23 = load ptr, ptr %22, align 8, !tbaa !14
  %24 = getelementptr inbounds nuw i8, ptr %19, i64 24
  %25 = load ptr, ptr %24, align 8, !tbaa !16
  %26 = getelementptr inbounds nuw i8, ptr %19, i64 32
  %27 = load ptr, ptr %26, align 8, !tbaa !17
  %28 = getelementptr inbounds nuw i8, ptr %0, i64 80
  %29 = load ptr, ptr %28, align 8, !tbaa !3
  %30 = getelementptr inbounds nuw i8, ptr %29, i64 16
  %31 = load ptr, ptr %30, align 8, !tbaa !14
  %32 = getelementptr inbounds nuw i8, ptr %29, i64 24
  %33 = load ptr, ptr %32, align 8, !tbaa !16
  %34 = getelementptr inbounds nuw i8, ptr %29, i64 32
  %35 = load ptr, ptr %34, align 8, !tbaa !17
  %36 = getelementptr inbounds nuw i8, ptr %0, i64 200
  %37 = load ptr, ptr %36, align 8, !tbaa !28
  %38 = getelementptr inbounds nuw i8, ptr %0, i64 88
  %39 = load ptr, ptr %38, align 8, !tbaa !19
  %40 = getelementptr inbounds nuw i8, ptr %0, i64 216
  %41 = load ptr, ptr %40, align 8, !tbaa !30
  %42 = getelementptr inbounds nuw i8, ptr %0, i64 208
  %43 = load ptr, ptr %42, align 8, !tbaa !29
  %44 = getelementptr inbounds nuw i8, ptr %0, i64 232
  %45 = load ptr, ptr %44, align 8, !tbaa !32
  %46 = getelementptr inbounds nuw i8, ptr %0, i64 224
  %47 = load ptr, ptr %46, align 8, !tbaa !31
  %48 = getelementptr inbounds nuw i8, ptr %0, i64 240
  %49 = load ptr, ptr %48, align 8, !tbaa !33
  %50 = tail call i64 @QDLDL_factor(i64 noundef %21, ptr noundef %23, ptr noundef %25, ptr noundef %27, ptr noundef %31, ptr noundef %33, ptr noundef %35, ptr noundef %37, ptr noundef %39, ptr noundef %41, ptr noundef %43, ptr noundef %45, ptr noundef %47, ptr noundef %49) #12
  %51 = load ptr, ptr %1, align 8, !tbaa !38
  %52 = getelementptr inbounds nuw i8, ptr %51, i64 8
  %53 = load i64, ptr %52, align 8, !tbaa !40
  %54 = icmp ne i64 %50, %53
  %55 = zext i1 %54 to i64
  ret i64 %55
}